compat_call_ctors = 001018a0;
compat_call_dtors = 001018e0;
end_ctors = 00106010;
end_dtors = 00106010;
_GLOBAL__sub_I_kernelContext = 001057e0;
_GLOBAL__sub_I__ZN3PMM8markFreeE7pointerI16physical_t_identE = 00105810;
_GLOBAL__sub_I__ZN6Screen11outOfScreenE = 00105840;
_GLOBAL__sub_I__ZN7Console4mainE = 00105780;
HIGHMEM = 0010b010;
init = 00104a20;
kernelContext = 0010b018;
kernelEndMarker = 0012c000;
kernel_stack = 0010b000;
kernelStartMarker = 00100000;
LOWMEM = 0010b014;
_start = 00100030;
start_ctors = 00106000;
start_dtors = 00106010;
_stop = 00100045;
strcat = 00105120;
strcpy = 001050f0;
__udivdi3 = 00105500;
__umoddi3 = 00105630;
video = 00106010;
_Z14initialize_pmmRKN9multiboot9StructureE = 00104940;
_Z14initialize_vmmv = 001047f0;
_ZGVN7pointerI16physical_t_identE7invalidE = 0012c000;
_ZL6bitmap = 0010b020;
_ZN10VMMContext17getPageDescriptorE7pointerI15virtual_t_identE = 00105230;
_ZN10VMMContext3mapE7pointerI15virtual_t_identES0_I16physical_t_identE8VMMFlags = 00105370;
_ZN10VMMContext5unmapE7pointerI15virtual_t_identE = 00105410;
_ZN10VMMContext7provideE7pointerI15virtual_t_identE8VMMFlags = 001052c0;
_ZN10VMMContextC1Ev = 00105190;
_ZN10VMMContextC2Ev = 00105190;
_ZN10VMMContextD1Ev = 001051e0;
_ZN10VMMContextD2Ev = 001051e0;
_ZN13PageDirectoryC1Ev = 00105420;
_ZN13PageDirectoryC2Ev = 00105420;
_ZN13PageDirectoryD1Ev = 00105440;
_ZN13PageDirectoryD2Ev = 00105440;
_ZN15CharacterDevice18printNumericPrefixEm = 001012b0;
_ZN15CharacterDevice6putrepEcm = 00101860;
_ZN15CharacterDevicelsEb = 00101240;
_ZN15CharacterDevicelsEl = 00101180;
_ZN15CharacterDevicelsEm = 00101120;
_ZN15CharacterDevicelsEPv = 001011e0;
_ZN15CharacterDevicelsIlEERS_RK13NumericFormatIT_E = 00101530;
_ZN15CharacterDevicelsImEERS_RK13NumericFormatIT_E = 00101420;
_ZN15CharacterDevicelsIxEERS_RK13NumericFormatIT_E = 00101750;
_ZN15CharacterDevicelsIyEERS_RK13NumericFormatIT_E = 00101640;
_ZN3PMM13getFreeMemoryEv = 00105020;
_ZN3PMM4freeE7pointerI16physical_t_identE = 00105000;
_ZN3PMM5allocEv = 00104f80;
_ZN3PMM8markFreeE7pointerI16physical_t_identE = 00104f40;
_ZN3PMM8markUsedE7pointerI16physical_t_identE = 00104f60;
_ZN3VMM6enableEv = 00105170;
_ZN3VMM8activateER10VMMContext = 00105180;
_ZN4BSOD3dieE5ErrorPKc = 00101100;
_ZN4BSOD3dieE5ErrorPKcP8CpuState = 00100050;
_ZN6Screen11outOfScreenE = 0012b02c;
_ZN6Screen4mainE = 0012b020;
_ZN6Screen5clearEv = 001050c0;
_ZN6ScreenC1EP10ScreenCharii = 00105080;
_ZN6ScreenC2EP10ScreenCharii = 00105080;
_ZN7Console11updateCaretEv = 00101f10;
_ZN7Console15setCaretVisibleEb = 00101f60;
_ZN7Console18printNumericPrefixEm = 00103380;
_ZN7Console3putEc = 00101c30;
_ZN7Console4mainE = 0010b000;
_ZN7Console5clearEv = 00101940;
_ZN7Console6putrepEcm = 00104580;
_ZN7Console6scrollEv = 00101a20;
_ZN7Console7newlineEv = 00101bb0;
_ZN7Console9setCursorEii = 00101e70;
_ZN7ConsoleC1EP6Screen = 001018f0;
_ZN7ConsoleC2EP6Screen = 001018f0;
_ZN7ConsolelsEb = 00102860;
_ZN7ConsolelsEl = 001022a0;
_ZN7ConsolelsEm = 00101fc0;
_ZN7ConsolelsEPv = 00102580;
_ZN7ConsolelsI15virtual_t_identEERS_7pointerIT_E = 00103070;
_ZN7ConsolelsI16physical_t_identEERS_7pointerIT_E = 00102d60;
_ZN7ConsolelsIlEERS_RK13NumericFormatIT_E = 00103b00;
_ZN7ConsolelsImEERS_RK13NumericFormatIT_E = 00103780;
_ZN7ConsolelsIxEERS_RK13NumericFormatIT_E = 00104200;
_ZN7ConsolelsIyEERS_RK13NumericFormatIT_E = 00103e80;
_ZN7Numeric8toStringEPcmlm = 00104b60;
_ZN7Numeric8toStringEPcmmm = 00104ad0;
_ZN7Numeric8toStringEPcmxm = 00104d80;
_ZN7Numeric8toStringEPcmym = 00104ca0;
_ZN7pointerI16physical_t_identE7invalidE = 0012c008;
_ZN9PageTableC1Ev = 00105490;
_ZN9PageTableC2Ev = 00105490;
_ZN9PageTableD1Ev = 001054b0;
_ZN9PageTableD2Ev = 001054b0;
